target datalayout = "e-m:e-p270:32:32-p271:32:32-p272:64:64-i64:64-i128:128-f80:128-n8:16:32:64-S128"
target triple = "x86_64-pc-linux-gnu"

%struct.curl_mimepart = type { ptr, ptr, i32, i32, ptr, ptr, ptr, ptr, ptr, ptr, ptr, ptr, ptr, ptr, ptr, i64, %struct.mime_state, ptr, %struct.mime_encoder_state, i64 }
%struct.mime_state = type { i32, ptr, i64 }
%struct.mime_encoder_state = type { i64, i64, i64, [256 x i8] }

@base64enc = internal constant [65 x i8] c"ABCDEFGHIJKLMNOPQRSTUVWXYZabcdefghijklmnopqrstuvwxyz0123456789+/\00", align 16

; Function Attrs: nounwind uwtable
define internal i64 @encoder_base64_read(ptr noundef %0, i64 noundef %1, i1 noundef zeroext %2, ptr noundef %3) #0 {
  %5 = alloca i64, align 8
  %6 = alloca ptr, align 8
  %7 = alloca i64, align 8
  %8 = alloca i8, align 1
  %9 = alloca ptr, align 8
  %10 = alloca ptr, align 8
  %11 = alloca i64, align 8
  %12 = alloca i32, align 4
  %13 = alloca ptr, align 8
  %14 = alloca i32, align 4
  store ptr %0, ptr %6, align 8, !tbaa !49
  store i64 %1, ptr %7, align 8, !tbaa !50
  %15 = zext i1 %2 to i8
  store i8 %15, ptr %8, align 1, !tbaa !70
  store ptr %3, ptr %9, align 8, !tbaa !4
  call void @llvm.lifetime.start.p0(i64 8, ptr %10) #8
  %16 = load ptr, ptr %9, align 8, !tbaa !4
  %17 = getelementptr inbounds nuw %struct.curl_mimepart, ptr %16, i32 0, i32 18
  store ptr %17, ptr %10, align 8, !tbaa !107
  call void @llvm.lifetime.start.p0(i64 8, ptr %11) #8
  store i64 0, ptr %11, align 8, !tbaa !50
  call void @llvm.lifetime.start.p0(i64 4, ptr %12) #8
  call void @llvm.lifetime.start.p0(i64 8, ptr %13) #8
  %18 = load ptr, ptr %6, align 8, !tbaa !49
  store ptr %18, ptr %13, align 8, !tbaa !49
  br label %19

19:                                               ; preds = %69, %4
  %20 = load ptr, ptr %10, align 8, !tbaa !107
  %21 = getelementptr inbounds nuw %struct.mime_encoder_state, ptr %20, i32 0, i32 1
  %22 = load i64, ptr %21, align 8, !tbaa !110
  %23 = load ptr, ptr %10, align 8, !tbaa !107
  %24 = getelementptr inbounds nuw %struct.mime_encoder_state, ptr %23, i32 0, i32 2
  %25 = load i64, ptr %24, align 8, !tbaa !111
  %26 = icmp ult i64 %22, %25
  br i1 %26, label %27, label %145

27:                                               ; preds = %19
  %28 = load ptr, ptr %10, align 8, !tbaa !107
  %29 = getelementptr inbounds nuw %struct.mime_encoder_state, ptr %28, i32 0, i32 0
  %30 = load i64, ptr %29, align 8, !tbaa !109
  %31 = icmp ugt i64 %30, 72
  br i1 %31, label %32, label %51

32:                                               ; preds = %27
  %33 = load i64, ptr %7, align 8, !tbaa !50
  %34 = icmp ult i64 %33, 2
  br i1 %34, label %35, label %40

35:                                               ; preds = %32
  %36 = load i64, ptr %11, align 8, !tbaa !50
  %37 = icmp ne i64 %36, 0
  br i1 %37, label %39, label %38

38:                                               ; preds = %35
  store i64 -2, ptr %5, align 8
  store i32 1, ptr %14, align 4
  br label %250

39:                                               ; preds = %35
  br label %145

40:                                               ; preds = %32
  %41 = load ptr, ptr %13, align 8, !tbaa !49
  %42 = getelementptr inbounds nuw i8, ptr %41, i32 1
  store ptr %42, ptr %13, align 8, !tbaa !49
  store i8 13, ptr %41, align 1, !tbaa !88
  %43 = load ptr, ptr %13, align 8, !tbaa !49
  %44 = getelementptr inbounds nuw i8, ptr %43, i32 1
  store ptr %44, ptr %13, align 8, !tbaa !49
  store i8 10, ptr %43, align 1, !tbaa !88
  %45 = load ptr, ptr %10, align 8, !tbaa !107
  %46 = getelementptr inbounds nuw %struct.mime_encoder_state, ptr %45, i32 0, i32 0
  store i64 0, ptr %46, align 8, !tbaa !109
  %47 = load i64, ptr %11, align 8, !tbaa !50
  %48 = add i64 %47, 2
  store i64 %48, ptr %11, align 8, !tbaa !50
  %49 = load i64, ptr %7, align 8, !tbaa !50
  %50 = sub i64 %49, 2
  store i64 %50, ptr %7, align 8, !tbaa !50
  br label %51

51:                                               ; preds = %40, %27
  %52 = load i64, ptr %7, align 8, !tbaa !50
  %53 = icmp ult i64 %52, 4
  br i1 %53, label %54, label %59

54:                                               ; preds = %51
  %55 = load i64, ptr %11, align 8, !tbaa !50
  %56 = icmp ne i64 %55, 0
  br i1 %56, label %58, label %57

57:                                               ; preds = %54
  store i64 -2, ptr %5, align 8
  store i32 1, ptr %14, align 4
  br label %250

58:                                               ; preds = %54
  br label %145

59:                                               ; preds = %51
  %60 = load ptr, ptr %10, align 8, !tbaa !107
  %61 = getelementptr inbounds nuw %struct.mime_encoder_state, ptr %60, i32 0, i32 2
  %62 = load i64, ptr %61, align 8, !tbaa !111
  %63 = load ptr, ptr %10, align 8, !tbaa !107
  %64 = getelementptr inbounds nuw %struct.mime_encoder_state, ptr %63, i32 0, i32 1
  %65 = load i64, ptr %64, align 8, !tbaa !110
  %66 = sub i64 %62, %65
  %67 = icmp ult i64 %66, 3
  br i1 %67, label %68, label %69

68:                                               ; preds = %59
  br label %145

69:                                               ; preds = %59
  %70 = load ptr, ptr %10, align 8, !tbaa !107
  %71 = getelementptr inbounds nuw %struct.mime_encoder_state, ptr %70, i32 0, i32 3
  %72 = load ptr, ptr %10, align 8, !tbaa !107
  %73 = getelementptr inbounds nuw %struct.mime_encoder_state, ptr %72, i32 0, i32 1
  %74 = load i64, ptr %73, align 8, !tbaa !110
  %75 = add i64 %74, 1
  store i64 %75, ptr %73, align 8, !tbaa !110
  %76 = getelementptr inbounds nuw [256 x i8], ptr %71, i64 0, i64 %74
  %77 = load i8, ptr %76, align 1, !tbaa !88
  %78 = sext i8 %77 to i32
  %79 = and i32 %78, 255
  store i32 %79, ptr %12, align 4, !tbaa !45
  %80 = load i32, ptr %12, align 4, !tbaa !45
  %81 = shl i32 %80, 8
  %82 = load ptr, ptr %10, align 8, !tbaa !107
  %83 = getelementptr inbounds nuw %struct.mime_encoder_state, ptr %82, i32 0, i32 3
  %84 = load ptr, ptr %10, align 8, !tbaa !107
  %85 = getelementptr inbounds nuw %struct.mime_encoder_state, ptr %84, i32 0, i32 1
  %86 = load i64, ptr %85, align 8, !tbaa !110
  %87 = add i64 %86, 1
  store i64 %87, ptr %85, align 8, !tbaa !110
  %88 = getelementptr inbounds nuw [256 x i8], ptr %83, i64 0, i64 %86
  %89 = load i8, ptr %88, align 1, !tbaa !88
  %90 = sext i8 %89 to i32
  %91 = and i32 %90, 255
  %92 = or i32 %81, %91
  store i32 %92, ptr %12, align 4, !tbaa !45
  %93 = load i32, ptr %12, align 4, !tbaa !45
  %94 = shl i32 %93, 8
  %95 = load ptr, ptr %10, align 8, !tbaa !107
  %96 = getelementptr inbounds nuw %struct.mime_encoder_state, ptr %95, i32 0, i32 3
  %97 = load ptr, ptr %10, align 8, !tbaa !107
  %98 = getelementptr inbounds nuw %struct.mime_encoder_state, ptr %97, i32 0, i32 1
  %99 = load i64, ptr %98, align 8, !tbaa !110
  %100 = add i64 %99, 1
  store i64 %100, ptr %98, align 8, !tbaa !110
  %101 = getelementptr inbounds nuw [256 x i8], ptr %96, i64 0, i64 %99
  %102 = load i8, ptr %101, align 1, !tbaa !88
  %103 = sext i8 %102 to i32
  %104 = and i32 %103, 255
  %105 = or i32 %94, %104
  store i32 %105, ptr %12, align 4, !tbaa !45
  %106 = load i32, ptr %12, align 4, !tbaa !45
  %107 = ashr i32 %106, 18
  %108 = and i32 %107, 63
  %109 = sext i32 %108 to i64
  %110 = getelementptr inbounds [65 x i8], ptr @base64enc, i64 0, i64 %109
  %111 = load i8, ptr %110, align 1, !tbaa !88
  %112 = load ptr, ptr %13, align 8, !tbaa !49
  %113 = getelementptr inbounds nuw i8, ptr %112, i32 1
  store ptr %113, ptr %13, align 8, !tbaa !49
  store i8 %111, ptr %112, align 1, !tbaa !88
  %114 = load i32, ptr %12, align 4, !tbaa !45
  %115 = ashr i32 %114, 12
  %116 = and i32 %115, 63
  %117 = sext i32 %116 to i64
  %118 = getelementptr inbounds [65 x i8], ptr @base64enc, i64 0, i64 %117
  %119 = load i8, ptr %118, align 1, !tbaa !88
  %120 = load ptr, ptr %13, align 8, !tbaa !49
  %121 = getelementptr inbounds nuw i8, ptr %120, i32 1
  store ptr %121, ptr %13, align 8, !tbaa !49
  store i8 %119, ptr %120, align 1, !tbaa !88
  %122 = load i32, ptr %12, align 4, !tbaa !45
  %123 = ashr i32 %122, 6
  %124 = and i32 %123, 63
  %125 = sext i32 %124 to i64
  %126 = getelementptr inbounds [65 x i8], ptr @base64enc, i64 0, i64 %125
  %127 = load i8, ptr %126, align 1, !tbaa !88
  %128 = load ptr, ptr %13, align 8, !tbaa !49
  %129 = getelementptr inbounds nuw i8, ptr %128, i32 1
  store ptr %129, ptr %13, align 8, !tbaa !49
  store i8 %127, ptr %128, align 1, !tbaa !88
  %130 = load i32, ptr %12, align 4, !tbaa !45
  %131 = and i32 %130, 63
  %132 = sext i32 %131 to i64
  %133 = getelementptr inbounds [65 x i8], ptr @base64enc, i64 0, i64 %132
  %134 = load i8, ptr %133, align 1, !tbaa !88
  %135 = load ptr, ptr %13, align 8, !tbaa !49
  %136 = getelementptr inbounds nuw i8, ptr %135, i32 1
  store ptr %136, ptr %13, align 8, !tbaa !49
  store i8 %134, ptr %135, align 1, !tbaa !88
  %137 = load i64, ptr %11, align 8, !tbaa !50
  %138 = add i64 %137, 4
  store i64 %138, ptr %11, align 8, !tbaa !50
  %139 = load ptr, ptr %10, align 8, !tbaa !107
  %140 = getelementptr inbounds nuw %struct.mime_encoder_state, ptr %139, i32 0, i32 0
  %141 = load i64, ptr %140, align 8, !tbaa !109
  %142 = add i64 %141, 4
  store i64 %142, ptr %140, align 8, !tbaa !109
  %143 = load i64, ptr %7, align 8, !tbaa !50
  %144 = sub i64 %143, 4
  store i64 %144, ptr %7, align 8, !tbaa !50
  br label %19, !llvm.loop !113

145:                                              ; preds = %68, %58, %39, %19
  %146 = load i8, ptr %8, align 1, !tbaa !70, !range !114, !noundef !115
  %147 = trunc i8 %146 to i1
  br i1 %147, label %148, label %248

148:                                              ; preds = %145
  %149 = load i64, ptr %7, align 8, !tbaa !50
  %150 = icmp ult i64 %149, 4
  br i1 %150, label %151, label %156

151:                                              ; preds = %148
  %152 = load i64, ptr %11, align 8, !tbaa !50
  %153 = icmp ne i64 %152, 0
  br i1 %153, label %155, label %154

154:                                              ; preds = %151
  store i64 -2, ptr %5, align 8
  store i32 1, ptr %14, align 4
  br label %250

155:                                              ; preds = %151
  br label %247

156:                                              ; preds = %148
  %157 = load ptr, ptr %13, align 8, !tbaa !49
  %158 = getelementptr inbounds i8, ptr %157, i64 3
  store i8 61, ptr %158, align 1, !tbaa !88
  %159 = load ptr, ptr %13, align 8, !tbaa !49
  %160 = getelementptr inbounds i8, ptr %159, i64 2
  store i8 61, ptr %160, align 1, !tbaa !88
  store i32 0, ptr %12, align 4, !tbaa !45
  %161 = load ptr, ptr %10, align 8, !tbaa !107
  %162 = getelementptr inbounds nuw %struct.mime_encoder_state, ptr %161, i32 0, i32 2
  %163 = load i64, ptr %162, align 8, !tbaa !111
  %164 = load ptr, ptr %10, align 8, !tbaa !107
  %165 = getelementptr inbounds nuw %struct.mime_encoder_state, ptr %164, i32 0, i32 1
  %166 = load i64, ptr %165, align 8, !tbaa !110
  %167 = icmp ne i64 %163, %166
  br i1 %167, label %168, label %246

168:                                              ; preds = %156
  %169 = load ptr, ptr %10, align 8, !tbaa !107
  %170 = getelementptr inbounds nuw %struct.mime_encoder_state, ptr %169, i32 0, i32 2
  %171 = load i64, ptr %170, align 8, !tbaa !111
  %172 = load ptr, ptr %10, align 8, !tbaa !107
  %173 = getelementptr inbounds nuw %struct.mime_encoder_state, ptr %172, i32 0, i32 1
  %174 = load i64, ptr %173, align 8, !tbaa !110
  %175 = sub i64 %171, %174
  %176 = icmp eq i64 %175, 2
  br i1 %176, label %177, label %189

177:                                              ; preds = %168
  %178 = load ptr, ptr %10, align 8, !tbaa !107
  %179 = getelementptr inbounds nuw %struct.mime_encoder_state, ptr %178, i32 0, i32 3
  %180 = load ptr, ptr %10, align 8, !tbaa !107
  %181 = getelementptr inbounds nuw %struct.mime_encoder_state, ptr %180, i32 0, i32 1
  %182 = load i64, ptr %181, align 8, !tbaa !110
  %183 = add i64 %182, 1
  %184 = getelementptr inbounds nuw [256 x i8], ptr %179, i64 0, i64 %183
  %185 = load i8, ptr %184, align 1, !tbaa !88
  %186 = sext i8 %185 to i32
  %187 = and i32 %186, 255
  %188 = shl i32 %187, 8
  store i32 %188, ptr %12, align 4, !tbaa !45
  br label %189

189:                                              ; preds = %177, %168
  %190 = load ptr, ptr %10, align 8, !tbaa !107
  %191 = getelementptr inbounds nuw %struct.mime_encoder_state, ptr %190, i32 0, i32 3
  %192 = load ptr, ptr %10, align 8, !tbaa !107
  %193 = getelementptr inbounds nuw %struct.mime_encoder_state, ptr %192, i32 0, i32 1
  %194 = load i64, ptr %193, align 8, !tbaa !110
  %195 = getelementptr inbounds nuw [256 x i8], ptr %191, i64 0, i64 %194
  %196 = load i8, ptr %195, align 1, !tbaa !88
  %197 = sext i8 %196 to i32
  %198 = and i32 %197, 255
  %199 = shl i32 %198, 16
  %200 = load i32, ptr %12, align 4, !tbaa !45
  %201 = or i32 %200, %199
  store i32 %201, ptr %12, align 4, !tbaa !45
  %202 = load i32, ptr %12, align 4, !tbaa !45
  %203 = ashr i32 %202, 18
  %204 = and i32 %203, 63
  %205 = sext i32 %204 to i64
  %206 = getelementptr inbounds [65 x i8], ptr @base64enc, i64 0, i64 %205
  %207 = load i8, ptr %206, align 1, !tbaa !88
  %208 = load ptr, ptr %13, align 8, !tbaa !49
  %209 = getelementptr inbounds i8, ptr %208, i64 0
  store i8 %207, ptr %209, align 1, !tbaa !88
  %210 = load i32, ptr %12, align 4, !tbaa !45
  %211 = ashr i32 %210, 12
  %212 = and i32 %211, 63
  %213 = sext i32 %212 to i64
  %214 = getelementptr inbounds [65 x i8], ptr @base64enc, i64 0, i64 %213
  %215 = load i8, ptr %214, align 1, !tbaa !88
  %216 = load ptr, ptr %13, align 8, !tbaa !49
  %217 = getelementptr inbounds i8, ptr %216, i64 1
  store i8 %215, ptr %217, align 1, !tbaa !88
  %218 = load ptr, ptr %10, align 8, !tbaa !107
  %219 = getelementptr inbounds nuw %struct.mime_encoder_state, ptr %218, i32 0, i32 1
  %220 = load i64, ptr %219, align 8, !tbaa !110
  %221 = add i64 %220, 1
  store i64 %221, ptr %219, align 8, !tbaa !110
  %222 = load ptr, ptr %10, align 8, !tbaa !107
  %223 = getelementptr inbounds nuw %struct.mime_encoder_state, ptr %222, i32 0, i32 2
  %224 = load i64, ptr %223, align 8, !tbaa !111
  %225 = icmp ne i64 %221, %224
  br i1 %225, label %226, label %239

226:                                              ; preds = %189
  %227 = load i32, ptr %12, align 4, !tbaa !45
  %228 = ashr i32 %227, 6
  %229 = and i32 %228, 63
  %230 = sext i32 %229 to i64
  %231 = getelementptr inbounds [65 x i8], ptr @base64enc, i64 0, i64 %230
  %232 = load i8, ptr %231, align 1, !tbaa !88
  %233 = load ptr, ptr %13, align 8, !tbaa !49
  %234 = getelementptr inbounds i8, ptr %233, i64 2
  store i8 %232, ptr %234, align 1, !tbaa !88
  %235 = load ptr, ptr %10, align 8, !tbaa !107
  %236 = getelementptr inbounds nuw %struct.mime_encoder_state, ptr %235, i32 0, i32 1
  %237 = load i64, ptr %236, align 8, !tbaa !110
  %238 = add i64 %237, 1
  store i64 %238, ptr %236, align 8, !tbaa !110
  br label %239

239:                                              ; preds = %226, %189
  %240 = load i64, ptr %11, align 8, !tbaa !50
  %241 = add i64 %240, 4
  store i64 %241, ptr %11, align 8, !tbaa !50
  %242 = load ptr, ptr %10, align 8, !tbaa !107
  %243 = getelementptr inbounds nuw %struct.mime_encoder_state, ptr %242, i32 0, i32 0
  %244 = load i64, ptr %243, align 8, !tbaa !109
  %245 = add i64 %244, 4
  store i64 %245, ptr %243, align 8, !tbaa !109
  br label %246

246:                                              ; preds = %239, %156
  br label %247

247:                                              ; preds = %246, %155
  br label %248

248:                                              ; preds = %247, %145
  %249 = load i64, ptr %11, align 8, !tbaa !50
  store i64 %249, ptr %5, align 8
  store i32 1, ptr %14, align 4
  br label %250

250:                                              ; preds = %248, %154, %57, %38
  call void @llvm.lifetime.end.p0(i64 8, ptr %13) #8
  call void @llvm.lifetime.end.p0(i64 4, ptr %12) #8
  call void @llvm.lifetime.end.p0(i64 8, ptr %11) #8
  call void @llvm.lifetime.end.p0(i64 8, ptr %10) #8
  %251 = load i64, ptr %5, align 8
  ret i64 %251
}