; Function Attrs: nofree norecurse nosync nounwind memory(argmem: readwrite) uwtable
define internal i64 @encoder_base64_read(ptr noundef writeonly captures(none) %0, i64 noundef %1, i1 noundef zeroext %2, ptr noundef captures(none) %3) #14 {
  %5 = getelementptr inbounds nuw i8, ptr %3, i64 152
  %6 = getelementptr inbounds nuw i8, ptr %3, i64 160
  %7 = getelementptr inbounds nuw i8, ptr %3, i64 168
  %8 = load i64, ptr %6, align 8, !tbaa !69
  %9 = load i64, ptr %7, align 8, !tbaa !70
  %10 = icmp ult i64 %8, %9
  br i1 %10, label %.lr.ph, label %.loopexit

.lr.ph:                                           ; preds = %4
  %11 = getelementptr inbounds nuw i8, ptr %3, i64 176
  %.pre = load i64, ptr %5, align 8, !tbaa !99
  br label %12

12:                                               ; preds = %.lr.ph, %31
  %13 = phi i64 [ %.pre, %.lr.ph ], [ %72, %31 ]
  %.088 = phi ptr [ %0, %.lr.ph ], [ %69, %31 ]
  %.06287 = phi i64 [ 0, %.lr.ph ], [ %70, %31 ]
  %.06686 = phi i64 [ %1, %.lr.ph ], [ %73, %31 ]
  %14 = icmp ugt i64 %13, 72
  br i1 %14, label %15, label %23

15:                                               ; preds = %12
  %16 = icmp ult i64 %.06686, 2
  br i1 %16, label %17, label %18

17:                                               ; preds = %15
  %.not71 = icmp eq i64 %.06287, 0
  br i1 %.not71, label %127, label %.loopexit

18:                                               ; preds = %15
  %19 = getelementptr inbounds nuw i8, ptr %.088, i64 1
  store i8 13, ptr %.088, align 1, !tbaa !67
  %20 = getelementptr inbounds nuw i8, ptr %.088, i64 2
  store i8 10, ptr %19, align 1, !tbaa !67
  store i64 0, ptr %5, align 8, !tbaa !99
  %21 = add i64 %.06287, 2
  %22 = add i64 %.06686, -2
  br label %23

23:                                               ; preds = %18, %12
  %.268 = phi i64 [ %22, %18 ], [ %.06686, %12 ]
  %.264 = phi i64 [ %21, %18 ], [ %.06287, %12 ]
  %.2 = phi ptr [ %20, %18 ], [ %.088, %12 ]
  %24 = icmp ult i64 %.268, 4
  br i1 %24, label %25, label %26

25:                                               ; preds = %23
  %.not = icmp eq i64 %.264, 0
  br i1 %.not, label %127, label %.loopexit

26:                                               ; preds = %23
  %27 = load i64, ptr %7, align 8, !tbaa !70
  %28 = load i64, ptr %6, align 8, !tbaa !69
  %29 = sub i64 %27, %28
  %30 = icmp ult i64 %29, 3
  br i1 %30, label %.loopexit, label %31

31:                                               ; preds = %26
  %32 = add i64 %28, 1
  %33 = getelementptr inbounds nuw [256 x i8], ptr %11, i64 0, i64 %28
  %34 = load i8, ptr %33, align 1, !tbaa !67
  %35 = zext i8 %34 to i32
  %36 = add i64 %28, 2
  store i64 %36, ptr %6, align 8, !tbaa !69
  %37 = getelementptr inbounds nuw [256 x i8], ptr %11, i64 0, i64 %32
  %38 = load i8, ptr %37, align 1, !tbaa !67
  %39 = zext i8 %38 to i32
  %40 = shl nuw nsw i32 %35, 16
  %41 = shl nuw nsw i32 %39, 8
  %42 = add i64 %28, 3
  store i64 %42, ptr %6, align 8, !tbaa !69
  %43 = getelementptr inbounds nuw [256 x i8], ptr %11, i64 0, i64 %36
  %44 = load i8, ptr %43, align 1, !tbaa !67
  %45 = zext i8 %44 to i32
  %46 = or disjoint i32 %41, %45
  %47 = or disjoint i32 %41, %40
  %48 = lshr i32 %35, 2
  %49 = zext nneg i32 %48 to i64
  %50 = getelementptr inbounds nuw [65 x i8], ptr @base64enc, i64 0, i64 %49
  %51 = load i8, ptr %50, align 1, !tbaa !67
  %52 = getelementptr inbounds nuw i8, ptr %.2, i64 1
  store i8 %51, ptr %.2, align 1, !tbaa !67
  %53 = lshr i32 %47, 12
  %54 = and i32 %53, 63
  %55 = zext nneg i32 %54 to i64
  %56 = getelementptr inbounds nuw [65 x i8], ptr @base64enc, i64 0, i64 %55
  %57 = load i8, ptr %56, align 1, !tbaa !67
  %58 = getelementptr inbounds nuw i8, ptr %.2, i64 2
  store i8 %57, ptr %52, align 1, !tbaa !67
  %59 = lshr i32 %46, 6
  %60 = and i32 %59, 63
  %61 = zext nneg i32 %60 to i64
  %62 = getelementptr inbounds nuw [65 x i8], ptr @base64enc, i64 0, i64 %61
  %63 = load i8, ptr %62, align 1, !tbaa !67
  %64 = getelementptr inbounds nuw i8, ptr %.2, i64 3
  store i8 %63, ptr %58, align 1, !tbaa !67
  %65 = and i32 %45, 63
  %66 = zext nneg i32 %65 to i64
  %67 = getelementptr inbounds nuw [65 x i8], ptr @base64enc, i64 0, i64 %66
  %68 = load i8, ptr %67, align 1, !tbaa !67
  %69 = getelementptr inbounds nuw i8, ptr %.2, i64 4
  store i8 %68, ptr %64, align 1, !tbaa !67
  %70 = add i64 %.264, 4
  %71 = load i64, ptr %5, align 8, !tbaa !99
  %72 = add i64 %71, 4
  store i64 %72, ptr %5, align 8, !tbaa !99
  %73 = add i64 %.268, -4
  %74 = load i64, ptr %6, align 8, !tbaa !69
  %75 = load i64, ptr %7, align 8, !tbaa !70
  %76 = icmp ult i64 %74, %75
  br i1 %76, label %12, label %.loopexit, !llvm.loop !100

.loopexit:                                        ; preds = %31, %26, %4, %25, %17
  %.167 = phi i64 [ %.06686, %17 ], [ %.268, %25 ], [ %1, %4 ], [ %73, %31 ], [ %.268, %26 ]
  %.163 = phi i64 [ %.06287, %17 ], [ %.264, %25 ], [ 0, %4 ], [ %70, %31 ], [ %.264, %26 ]
  %.1 = phi ptr [ %.088, %17 ], [ %.2, %25 ], [ %0, %4 ], [ %69, %31 ], [ %.2, %26 ]
  br i1 %2, label %77, label %127

77:                                               ; preds = %.loopexit
  %78 = icmp ult i64 %.167, 4
  br i1 %78, label %79, label %80

79:                                               ; preds = %77
  %.not74 = icmp eq i64 %.163, 0
  %spec.select = select i1 %.not74, i64 -2, i64 %.163
  br label %127

80:                                               ; preds = %77
  %81 = getelementptr inbounds nuw i8, ptr %.1, i64 3
  store i8 61, ptr %81, align 1, !tbaa !67
  %82 = getelementptr inbounds nuw i8, ptr %.1, i64 2
  store i8 61, ptr %82, align 1, !tbaa !67
  %83 = load i64, ptr %7, align 8, !tbaa !70
  %84 = load i64, ptr %6, align 8, !tbaa !69
  %.not72 = icmp eq i64 %83, %84
  br i1 %.not72, label %127, label %85

85:                                               ; preds = %80
  %86 = sub i64 %83, %84
  %87 = icmp eq i64 %86, 2
  br i1 %87, label %88, label %95

88:                                               ; preds = %85
  %89 = getelementptr inbounds nuw i8, ptr %3, i64 176
  %90 = add i64 %84, 1
  %91 = getelementptr inbounds nuw [256 x i8], ptr %89, i64 0, i64 %90
  %92 = load i8, ptr %91, align 1, !tbaa !67
  %93 = zext i8 %92 to i32
  %94 = shl nuw nsw i32 %93, 8
  br label %95

95:                                               ; preds = %88, %85
  %.061 = phi i32 [ %94, %88 ], [ 0, %85 ]
  %96 = getelementptr inbounds nuw i8, ptr %3, i64 176
  %97 = getelementptr inbounds nuw [256 x i8], ptr %96, i64 0, i64 %84
  %98 = load i8, ptr %97, align 1, !tbaa !67
  %99 = zext i8 %98 to i32
  %100 = shl nuw nsw i32 %99, 16
  %101 = or i32 %100, %.061
  %102 = lshr i32 %101, 18
  %103 = zext nneg i32 %102 to i64
  %104 = getelementptr inbounds nuw [65 x i8], ptr @base64enc, i64 0, i64 %103
  %105 = load i8, ptr %104, align 1, !tbaa !67
  store i8 %105, ptr %.1, align 1, !tbaa !67
  %106 = lshr i32 %101, 12
  %107 = and i32 %106, 63
  %108 = zext nneg i32 %107 to i64
  %109 = getelementptr inbounds nuw [65 x i8], ptr @base64enc, i64 0, i64 %108
  %110 = load i8, ptr %109, align 1, !tbaa !67
  %111 = getelementptr inbounds nuw i8, ptr %.1, i64 1
  store i8 %110, ptr %111, align 1, !tbaa !67
  %112 = load i64, ptr %6, align 8, !tbaa !69
  %113 = add i64 %112, 1
  store i64 %113, ptr %6, align 8, !tbaa !69
  %114 = load i64, ptr %7, align 8, !tbaa !70
  %.not73 = icmp eq i64 %113, %114
  br i1 %.not73, label %123, label %115

115:                                              ; preds = %95
  %116 = lshr exact i32 %.061, 6
  %117 = and i32 %116, 60
  %118 = zext nneg i32 %117 to i64
  %119 = getelementptr inbounds nuw [65 x i8], ptr @base64enc, i64 0, i64 %118
  %120 = load i8, ptr %119, align 4, !tbaa !67
  store i8 %120, ptr %82, align 1, !tbaa !67
  %121 = load i64, ptr %6, align 8, !tbaa !69
  %122 = add i64 %121, 1
  store i64 %122, ptr %6, align 8, !tbaa !69
  br label %123

123:                                              ; preds = %115, %95
  %124 = add i64 %.163, 4
  %125 = load i64, ptr %5, align 8, !tbaa !99
  %126 = add i64 %125, 4
  store i64 %126, ptr %5, align 8, !tbaa !99
  br label %127

127:                                              ; preds = %79, %.loopexit, %80, %123, %25, %17
  %.065 = phi i64 [ -2, %17 ], [ -2, %25 ], [ %124, %123 ], [ %.163, %80 ], [ %.163, %.loopexit ], [ %spec.select, %79 ]
  ret i64 %.065
}